target datalayout = "e-m:e-p270:32:32-p271:32:32-p272:64:64-i64:64-i128:128-f80:128-n8:16:32:64-S128"
target triple = "x86_64-pc-linux-gnu"

@stderr = external global ptr, align 8
@.str.261 = private unnamed_addr constant [15 x i8] c"out of memory\0A\00", align 1
@nDefine = internal global i32 0, align 4
@azDefine = internal global ptr null, align 8

; Function Attrs: nounwind null_pointer_is_valid sspstrong uwtable
define internal void @lemon_strcpy(ptr noundef %0, ptr noundef %1) #2 {
  %3 = alloca ptr, align 8
  %4 = alloca ptr, align 8
  store ptr %0, ptr %3, align 8
  store ptr %1, ptr %4, align 8
  br label %5

5:                                                ; preds = %13, %2
  %6 = load ptr, ptr %4, align 8
  %7 = getelementptr i8, ptr %6, i32 1
  store ptr %7, ptr %4, align 8
  %8 = load i8, ptr %6, align 1
  %9 = load ptr, ptr %3, align 8
  %10 = getelementptr i8, ptr %9, i32 1
  store ptr %10, ptr %3, align 8
  store i8 %8, ptr %9, align 1
  %11 = sext i8 %8 to i32
  %12 = icmp ne i32 %11, 0
  br i1 %12, label %13, label %14

13:                                               ; preds = %5
  br label %5, !llvm.loop !198

14:                                               ; preds = %5
  ret void
}

; Function Attrs: null_pointer_is_valid sspstrong uwtable
define internal void @handle_D_option(ptr noundef %0) #0 {
  %2 = alloca ptr, align 8
  %3 = alloca ptr, align 8
  store ptr %0, ptr %2, align 8
  call void @llvm.lifetime.start.p0(i64 8, ptr %3) #18
  %4 = load i32, ptr @nDefine, align 4
  %5 = add i32 %4, 1
  store i32 %5, ptr @nDefine, align 4
  %6 = load ptr, ptr @azDefine, align 8
  %7 = load i32, ptr @nDefine, align 4
  %8 = sext i32 %7 to i64
  %9 = mul i64 8, %8
  %10 = call ptr @realloc(ptr noundef %6, i64 noundef %9) #21
  store ptr %10, ptr @azDefine, align 8
  %11 = load ptr, ptr @azDefine, align 8
  %12 = icmp eq ptr %11, null
  br i1 %12, label %13, label %16

13:                                               ; preds = %1
  %14 = load ptr, ptr @stderr, align 8
  %15 = call i32 (ptr, i32, ptr, ...) @__fprintf_chk(ptr noundef %14, i32 noundef 2, ptr noundef @.str.261)
  call void @exit(i32 noundef 1) #20
  unreachable

16:                                               ; preds = %1
  %17 = load ptr, ptr @azDefine, align 8
  %18 = load i32, ptr @nDefine, align 4
  %19 = sub i32 %18, 1
  %20 = sext i32 %19 to i64
  %21 = getelementptr ptr, ptr %17, i64 %20
  store ptr %21, ptr %3, align 8
  %22 = load ptr, ptr %2, align 8
  %23 = call i64 @strlen(ptr noundef %22) #22
  %24 = trunc i64 %23 to i32
  %25 = add i32 %24, 1
  %26 = sext i32 %25 to i64
  %27 = call noalias ptr @malloc(i64 noundef %26) #23
  %28 = load ptr, ptr %3, align 8
  store ptr %27, ptr %28, align 8
  %29 = load ptr, ptr %3, align 8
  %30 = load ptr, ptr %29, align 8
  %31 = icmp eq ptr %30, null
  br i1 %31, label %32, label %35

32:                                               ; preds = %16
  %33 = load ptr, ptr @stderr, align 8
  %34 = call i32 (ptr, i32, ptr, ...) @__fprintf_chk(ptr noundef %33, i32 noundef 2, ptr noundef @.str.261)
  call void @exit(i32 noundef 1) #20
  unreachable

35:                                               ; preds = %16
  %36 = load ptr, ptr %3, align 8
  %37 = load ptr, ptr %36, align 8
  %38 = load ptr, ptr %2, align 8
  call void @lemon_strcpy(ptr noundef %37, ptr noundef %38)
  %39 = load ptr, ptr %3, align 8
  %40 = load ptr, ptr %39, align 8
  store ptr %40, ptr %2, align 8
  br label %41

41:                                               ; preds = %54, %35
  %42 = load ptr, ptr %2, align 8
  %43 = load i8, ptr %42, align 1
  %44 = sext i8 %43 to i32
  %45 = icmp ne i32 %44, 0
  br i1 %45, label %46, label %51

46:                                               ; preds = %41
  %47 = load ptr, ptr %2, align 8
  %48 = load i8, ptr %47, align 1
  %49 = sext i8 %48 to i32
  %50 = icmp ne i32 %49, 61
  br label %51

51:                                               ; preds = %46, %41
  %52 = phi i1 [ false, %41 ], [ %50, %46 ]
  br i1 %52, label %53, label %57

53:                                               ; preds = %51
  br label %54

54:                                               ; preds = %53
  %55 = load ptr, ptr %2, align 8
  %56 = getelementptr i8, ptr %55, i32 1
  store ptr %56, ptr %2, align 8
  br label %41, !llvm.loop !90

57:                                               ; preds = %51
  %58 = load ptr, ptr %2, align 8
  store i8 0, ptr %58, align 1
  call void @llvm.lifetime.end.p0(i64 8, ptr %3) #18
  ret void
}