; Function Attrs: null_pointer_is_valid sspstrong uwtable
define internal void @handle_D_option(ptr noundef readonly captures(none) %0) #0 {
  %2 = load i32, ptr @nDefine, align 4
  %3 = add i32 %2, 1
  store i32 %3, ptr @nDefine, align 4
  %4 = load ptr, ptr @azDefine, align 8
  %5 = sext i32 %3 to i64
  %6 = shl nsw i64 %5, 3
  %7 = tail call ptr @realloc(ptr noundef %4, i64 noundef %6) #43
  store ptr %7, ptr @azDefine, align 8
  %8 = icmp eq ptr %7, null
  br i1 %8, label %9, label %12

9:                                                ; preds = %1
  %10 = load ptr, ptr @stderr, align 8
  %11 = tail call i32 (ptr, i32, ptr, ...) @__fprintf_chk(ptr noundef %10, i32 noundef 2, ptr noundef nonnull @.str.261)
  tail call void @exit(i32 noundef 1) #41
  unreachable

12:                                               ; preds = %1
  %13 = sext i32 %2 to i64
  %14 = getelementptr ptr, ptr %7, i64 %13
  %15 = tail call i64 @strlen(ptr noundef %0) #45
  %16 = shl i64 %15, 32
  %sext = add i64 %16, 4294967296
  %17 = ashr exact i64 %sext, 32
  %18 = tail call noalias ptr @malloc(i64 noundef %17) #44
  store ptr %18, ptr %14, align 8
  %19 = icmp eq ptr %18, null
  br i1 %19, label %20, label %.preheader

20:                                               ; preds = %12
  %21 = load ptr, ptr @stderr, align 8
  %22 = tail call i32 (ptr, i32, ptr, ...) @__fprintf_chk(ptr noundef %21, i32 noundef 2, ptr noundef nonnull @.str.261)
  tail call void @exit(i32 noundef 1) #41
  unreachable

.preheader:                                       ; preds = %12, %.preheader
  %.02.i = phi ptr [ %25, %.preheader ], [ %18, %12 ]
  %.0.i = phi ptr [ %23, %.preheader ], [ %0, %12 ]
  %23 = getelementptr i8, ptr %.0.i, i64 1
  %24 = load i8, ptr %.0.i, align 1
  %25 = getelementptr i8, ptr %.02.i, i64 1
  store i8 %24, ptr %.02.i, align 1
  %.not.i = icmp eq i8 %24, 0
  br i1 %.not.i, label %lemon_strcpy.exit, label %.preheader, !llvm.loop !104

lemon_strcpy.exit:                                ; preds = %.preheader, %27
  %.0 = phi ptr [ %28, %27 ], [ %18, %.preheader ]
  %26 = load i8, ptr %.0, align 1
  switch i8 %26, label %27 [
    i8 0, label %.critedge
    i8 61, label %.critedge
  ]

27:                                               ; preds = %lemon_strcpy.exit
  %28 = getelementptr i8, ptr %.0, i64 1
  br label %lemon_strcpy.exit, !llvm.loop !105

.critedge:                                        ; preds = %lemon_strcpy.exit, %lemon_strcpy.exit
  store i8 0, ptr %.0, align 1
  ret void
}